; Function Attrs: mustprogress uwtable
define noundef range(i32 1073741824, 0) i32 @_ZN11dtTileCache19buildNavMeshTilesAtEiiP9dtNavMesh(ptr noundef nonnull readonly align 8 captures(none) dereferenceable(912) %0, i32 noundef %1, i32 noundef %2, ptr noundef %3) local_unnamed_addr #0 align 2 {
  %5 = alloca [32 x i32], align 16
  %6 = getelementptr inbounds nuw i8, ptr %0, i64 4
  %7 = load i32, ptr %6, align 4
  %8 = mul i32 %1, -1918454973
  %9 = mul i32 %2, -669632447
  %10 = add i32 %9, %8
  %11 = and i32 %7, %10
  %12 = getelementptr inbounds nuw i8, ptr %0, i64 8
  %13 = load ptr, ptr %12, align 8
  %14 = sext i32 %11 to i64
  %15 = getelementptr inbounds ptr, ptr %13, i64 %14
  %.019.i = load ptr, ptr %15, align 8
  %.not20.i = icmp eq ptr %.019.i, null
  br i1 %.not20.i, label %._crit_edge, label %.lr.ph.i

.lr.ph.i:                                         ; preds = %4
  %16 = getelementptr inbounds nuw i8, ptr %0, i64 24
  %17 = getelementptr inbounds nuw i8, ptr %0, i64 36
  %18 = load ptr, ptr %16, align 8
  %19 = ptrtoint ptr %18 to i64
  %20 = load i32, ptr %17, align 4
  br label %21

21:                                               ; preds = %43, %.lr.ph.i
  %.022.i = phi ptr [ %.019.i, %.lr.ph.i ], [ %.0.i, %43 ]
  %.01621.i = phi i32 [ 0, %.lr.ph.i ], [ %.1.i, %43 ]
  %22 = getelementptr inbounds nuw i8, ptr %.022.i, i64 8
  %23 = load ptr, ptr %22, align 8
  %.not18.i = icmp eq ptr %23, null
  br i1 %.not18.i, label %43, label %24

24:                                               ; preds = %21
  %25 = getelementptr inbounds nuw i8, ptr %23, i64 8
  %26 = load i32, ptr %25, align 4
  %27 = icmp eq i32 %26, %1
  br i1 %27, label %28, label %43

28:                                               ; preds = %24
  %29 = getelementptr inbounds nuw i8, ptr %23, i64 12
  %30 = load i32, ptr %29, align 4
  %31 = icmp eq i32 %30, %2
  %32 = icmp slt i32 %.01621.i, 32
  %or.cond.i = select i1 %31, i1 %32, i1 false
  br i1 %or.cond.i, label %_ZNK11dtTileCache10getTileRefEPK16dtCompressedTile.exit.i, label %43

_ZNK11dtTileCache10getTileRefEPK16dtCompressedTile.exit.i: ; preds = %28
  %33 = ptrtoint ptr %.022.i to i64
  %34 = sub i64 %33, %19
  %35 = sdiv exact i64 %34, 56
  %36 = trunc i64 %35 to i32
  %37 = load i32, ptr %.022.i, align 8
  %38 = shl i32 %37, %20
  %39 = or i32 %38, %36
  %40 = add nsw i32 %.01621.i, 1
  %41 = sext i32 %.01621.i to i64
  %42 = getelementptr inbounds i32, ptr %5, i64 %41
  store i32 %39, ptr %42, align 4
  br label %43

43:                                               ; preds = %_ZNK11dtTileCache10getTileRefEPK16dtCompressedTile.exit.i, %28, %24, %21
  %.1.i = phi i32 [ %40, %_ZNK11dtTileCache10getTileRefEPK16dtCompressedTile.exit.i ], [ %.01621.i, %28 ], [ %.01621.i, %24 ], [ %.01621.i, %21 ]
  %44 = getelementptr inbounds nuw i8, ptr %.022.i, i64 48
  %.0.i = load ptr, ptr %44, align 8
  %.not.i = icmp eq ptr %.0.i, null
  br i1 %.not.i, label %_ZNK11dtTileCache10getTilesAtEiiPji.exit, label %21, !llvm.loop !8

_ZNK11dtTileCache10getTilesAtEiiPji.exit:         ; preds = %43
  %45 = icmp sgt i32 %.1.i, 0
  br i1 %45, label %.lr.ph.preheader, label %._crit_edge

.lr.ph.preheader:                                 ; preds = %_ZNK11dtTileCache10getTilesAtEiiPji.exit
  %wide.trip.count = zext nneg i32 %.1.i to i64
  br label %.lr.ph

46:                                               ; preds = %.lr.ph
  %indvars.iv.next = add nuw nsw i64 %indvars.iv, 1
  %exitcond.not = icmp eq i64 %indvars.iv.next, %wide.trip.count
  br i1 %exitcond.not, label %._crit_edge, label %.lr.ph, !llvm.loop !22

.lr.ph:                                           ; preds = %.lr.ph.preheader, %46
  %indvars.iv = phi i64 [ 0, %.lr.ph.preheader ], [ %indvars.iv.next, %46 ]
  %47 = getelementptr inbounds nuw [32 x i32], ptr %5, i64 0, i64 %indvars.iv
  %48 = load i32, ptr %47, align 4
  %49 = tail call noundef i32 @_ZN11dtTileCache16buildNavMeshTileEjP9dtNavMesh(ptr noundef nonnull align 8 dereferenceable(912) %0, i32 noundef %48, ptr noundef %3)
  %50 = icmp slt i32 %49, 0
  br i1 %50, label %._crit_edge, label %46

._crit_edge:                                      ; preds = %.lr.ph, %46, %4, %_ZNK11dtTileCache10getTilesAtEiiPji.exit
  %.0 = phi i32 [ 1073741824, %_ZNK11dtTileCache10getTilesAtEiiPji.exit ], [ 1073741824, %4 ], [ 1073741824, %46 ], [ %49, %.lr.ph ]
  ret i32 %.0
}